target datalayout = "e-m:e-p270:32:32-p271:32:32-p272:64:64-i64:64-i128:128-f80:128-n8:16:32:64-S128"
target triple = "x86_64-pc-linux-gnu"

%struct.stack_st = type { i64, ptr, i64, i64, ptr }

; Function Attrs: nounwind uwtable
define hidden ptr @sk_delete(ptr noundef %0, i64 noundef %1) #0 {
  %3 = alloca ptr, align 8
  %4 = alloca ptr, align 8
  %5 = alloca i64, align 8
  %6 = alloca ptr, align 8
  %7 = alloca i32, align 4
  store ptr %0, ptr %4, align 8, !tbaa !10
  store i64 %1, ptr %5, align 8, !tbaa !19
  call void @llvm.lifetime.start.p0(i64 8, ptr %6) #9
  %8 = load ptr, ptr %4, align 8, !tbaa !10
  %9 = icmp ne ptr %8, null
  br i1 %9, label %10, label %16

10:                                               ; preds = %2
  %11 = load i64, ptr %5, align 8, !tbaa !19
  %12 = load ptr, ptr %4, align 8, !tbaa !10
  %13 = getelementptr inbounds nuw %struct.stack_st, ptr %12, i32 0, i32 0
  %14 = load i64, ptr %13, align 8, !tbaa !17
  %15 = icmp uge i64 %11, %14
  br i1 %15, label %16, label %17

16:                                               ; preds = %10, %2
  store ptr null, ptr %3, align 8
  store i32 1, ptr %7, align 4
  br label %55

17:                                               ; preds = %10
  %18 = load ptr, ptr %4, align 8, !tbaa !10
  %19 = getelementptr inbounds nuw %struct.stack_st, ptr %18, i32 0, i32 1
  %20 = load ptr, ptr %19, align 8, !tbaa !12
  %21 = load i64, ptr %5, align 8, !tbaa !19
  %22 = getelementptr inbounds nuw ptr, ptr %20, i64 %21
  %23 = load ptr, ptr %22, align 8, !tbaa !6
  store ptr %23, ptr %6, align 8, !tbaa !6
  %24 = load i64, ptr %5, align 8, !tbaa !19
  %25 = load ptr, ptr %4, align 8, !tbaa !10
  %26 = getelementptr inbounds nuw %struct.stack_st, ptr %25, i32 0, i32 0
  %27 = load i64, ptr %26, align 8, !tbaa !17
  %28 = sub i64 %27, 1
  %29 = icmp ne i64 %24, %28
  br i1 %29, label %30, label %49

30:                                               ; preds = %17
  %31 = load ptr, ptr %4, align 8, !tbaa !10
  %32 = getelementptr inbounds nuw %struct.stack_st, ptr %31, i32 0, i32 1
  %33 = load ptr, ptr %32, align 8, !tbaa !12
  %34 = load i64, ptr %5, align 8, !tbaa !19
  %35 = getelementptr inbounds nuw ptr, ptr %33, i64 %34
  %36 = load ptr, ptr %4, align 8, !tbaa !10
  %37 = getelementptr inbounds nuw %struct.stack_st, ptr %36, i32 0, i32 1
  %38 = load ptr, ptr %37, align 8, !tbaa !12
  %39 = load i64, ptr %5, align 8, !tbaa !19
  %40 = add i64 %39, 1
  %41 = getelementptr inbounds nuw ptr, ptr %38, i64 %40
  %42 = load ptr, ptr %4, align 8, !tbaa !10
  %43 = getelementptr inbounds nuw %struct.stack_st, ptr %42, i32 0, i32 0
  %44 = load i64, ptr %43, align 8, !tbaa !17
  %45 = load i64, ptr %5, align 8, !tbaa !19
  %46 = sub i64 %44, %45
  %47 = sub i64 %46, 1
  %48 = mul i64 8, %47
  call void @llvm.memmove.p0.p0.i64(ptr align 8 %35, ptr align 8 %41, i64 %48, i1 false)
  br label %49

49:                                               ; preds = %30, %17
  %50 = load ptr, ptr %4, align 8, !tbaa !10
  %51 = getelementptr inbounds nuw %struct.stack_st, ptr %50, i32 0, i32 0
  %52 = load i64, ptr %51, align 8, !tbaa !17
  %53 = add i64 %52, -1
  store i64 %53, ptr %51, align 8, !tbaa !17
  %54 = load ptr, ptr %6, align 8, !tbaa !6
  store ptr %54, ptr %3, align 8
  store i32 1, ptr %7, align 4
  br label %55

55:                                               ; preds = %49, %16
  call void @llvm.lifetime.end.p0(i64 8, ptr %6) #9
  %56 = load ptr, ptr %3, align 8
  ret ptr %56
}

; Function Attrs: nounwind uwtable
define hidden ptr @sk_delete_ptr(ptr noundef %0, ptr noundef %1) #0 {
  %3 = alloca ptr, align 8
  %4 = alloca ptr, align 8
  %5 = alloca ptr, align 8
  %6 = alloca i64, align 8
  %7 = alloca i32, align 4
  store ptr %0, ptr %4, align 8, !tbaa !10
  store ptr %1, ptr %5, align 8, !tbaa !6
  call void @llvm.lifetime.start.p0(i64 8, ptr %6) #9
  %8 = load ptr, ptr %4, align 8, !tbaa !10
  %9 = icmp eq ptr %8, null
  br i1 %9, label %10, label %11

10:                                               ; preds = %2
  store ptr null, ptr %3, align 8
  store i32 1, ptr %7, align 4
  br label %36

11:                                               ; preds = %2
  store i64 0, ptr %6, align 8, !tbaa !19
  br label %12

12:                                               ; preds = %32, %11
  %13 = load i64, ptr %6, align 8, !tbaa !19
  %14 = load ptr, ptr %4, align 8, !tbaa !10
  %15 = getelementptr inbounds nuw %struct.stack_st, ptr %14, i32 0, i32 0
  %16 = load i64, ptr %15, align 8, !tbaa !17
  %17 = icmp ult i64 %13, %16
  br i1 %17, label %18, label %35

18:                                               ; preds = %12
  %19 = load ptr, ptr %4, align 8, !tbaa !10
  %20 = getelementptr inbounds nuw %struct.stack_st, ptr %19, i32 0, i32 1
  %21 = load ptr, ptr %20, align 8, !tbaa !12
  %22 = load i64, ptr %6, align 8, !tbaa !19
  %23 = getelementptr inbounds nuw ptr, ptr %21, i64 %22
  %24 = load ptr, ptr %23, align 8, !tbaa !6
  %25 = load ptr, ptr %5, align 8, !tbaa !6
  %26 = icmp eq ptr %24, %25
  br i1 %26, label %27, label %31

27:                                               ; preds = %18
  %28 = load ptr, ptr %4, align 8, !tbaa !10
  %29 = load i64, ptr %6, align 8, !tbaa !19
  %30 = call ptr @sk_delete(ptr noundef %28, i64 noundef %29)
  store ptr %30, ptr %3, align 8
  store i32 1, ptr %7, align 4
  br label %36

31:                                               ; preds = %18
  br label %32

32:                                               ; preds = %31
  %33 = load i64, ptr %6, align 8, !tbaa !19
  %34 = add i64 %33, 1
  store i64 %34, ptr %6, align 8, !tbaa !19
  br label %12, !llvm.loop !22

35:                                               ; preds = %12
  store ptr null, ptr %3, align 8
  store i32 1, ptr %7, align 4
  br label %36

36:                                               ; preds = %35, %27, %10
  call void @llvm.lifetime.end.p0(i64 8, ptr %6) #9
  %37 = load ptr, ptr %3, align 8
  ret ptr %37
}