; Function Attrs: nofree norecurse nosync nounwind memory(readwrite, inaccessiblemem: none) uwtable
define hidden ptr @sk_delete_ptr(ptr noundef captures(address_is_null) %0, ptr noundef readnone captures(address) %1) local_unnamed_addr #11 {
  %3 = icmp eq ptr %0, null
  br i1 %3, label %.loopexit, label %.preheader

.preheader:                                       ; preds = %2
  %4 = load i64, ptr %0, align 8, !tbaa !14
  %.not = icmp eq i64 %4, 0
  br i1 %.not, label %.loopexit, label %.lr.ph

.lr.ph:                                           ; preds = %.preheader
  %5 = getelementptr inbounds nuw i8, ptr %0, i64 8
  %6 = load ptr, ptr %5, align 8, !tbaa !6
  br label %7

7:                                                ; preds = %.lr.ph, %19
  %.015 = phi i64 [ 0, %.lr.ph ], [ %20, %19 ]
  %8 = getelementptr inbounds nuw ptr, ptr %6, i64 %.015
  %9 = load ptr, ptr %8, align 8, !tbaa !16
  %10 = icmp eq ptr %9, %1
  br i1 %10, label %11, label %19

11:                                               ; preds = %7
  %12 = add i64 %4, -1
  %.not19.i = icmp eq i64 %.015, %12
  br i1 %.not19.i, label %sk_delete.exit, label %13

13:                                               ; preds = %11
  %14 = getelementptr inbounds nuw ptr, ptr %6, i64 %.015
  %15 = getelementptr i8, ptr %14, i64 8
  %16 = xor i64 %.015, -1
  %17 = add i64 %4, %16
  %18 = shl i64 %17, 3
  tail call void @llvm.memmove.p0.p0.i64(ptr nonnull align 8 %14, ptr align 8 %15, i64 %18, i1 false)
  %.pre.i = load i64, ptr %0, align 8, !tbaa !14
  %.pre20.i = add i64 %.pre.i, -1
  br label %sk_delete.exit

sk_delete.exit:                                   ; preds = %11, %13
  %.pre-phi.i = phi i64 [ %.pre20.i, %13 ], [ %.015, %11 ]
  store i64 %.pre-phi.i, ptr %0, align 8, !tbaa !14
  br label %.loopexit

19:                                               ; preds = %7
  %20 = add nuw i64 %.015, 1
  %exitcond.not = icmp eq i64 %20, %4
  br i1 %exitcond.not, label %.loopexit, label %7, !llvm.loop !19

.loopexit:                                        ; preds = %19, %.preheader, %2, %sk_delete.exit
  %.09 = phi ptr [ %9, %sk_delete.exit ], [ null, %2 ], [ null, %.preheader ], [ null, %19 ]
  ret ptr %.09
}